ASxxxx Linker V03.00 + NoICE + sdld,  page 1.
Hexadecimal  [32-Bits]

Area                                    Addr        Size        Decimal Bytes (Attributes)
--------------------------------        ----        ----        ------- ----- ------------
.  .ABS.                            00000000    00000000 =           0. bytes (ABS,CON)

      Value  Global                              Global Defined In Module
      -----  --------------------------------   ------------------------
     00000000  .__.ABS.                           cpct_firmware
     00000000  l__CABS                         
     00000000  l__DABS                         
     00000000  l__DATA                         
     00000000  l__GSFINAL                      
     00000000  l__GSINIT                       
     00000000  l__HOME                         
     00000000  l__INITIALIZED                  
     00000000  l__INITIALIZER                  
     00000000  s__CABS                         
     00000000  s__DABS                         
     00000EC3  l__CODE                         
     00004000  s__CODE                         
     00004EC3  s__DATA                         
     00004EC3  s__GSFINAL                      
     00004EC3  s__GSINIT                       
     00004EC3  s__HOME                         
     00004EC3  s__INITIALIZED                  
     00004EC3  s__INITIALIZER                  

ASxxxx Linker V03.00 + NoICE + sdld,  page 2.
Hexadecimal  [32-Bits]

Area                                    Addr        Size        Decimal Bytes (Attributes)
--------------------------------        ----        ----        ------- ----- ------------
_CODE                               00004000    00000EC3 =        3779. bytes (REL,CON)

      Value  Global                              Global Defined In Module
      -----  --------------------------------   ------------------------
     00004000  _main                              main
     00004087  _send_command_to_pi                main
     000040BB  _read_response_from_pi             main
     000040FB  _fifo_reset                        
     00004100  _fifo_get_dor                      
     00004108  _fifo_get_dir                      
     00004111  _fifo_in_byte                      
     00004122  _fifo_out_byte                     
     00004161  _fifo_in_bytes                     
     000041A9  _fifo_out_bytes                    
     000041F5  _fifo_in_nc_bytes                  
     00004220  _fifo_out_nc_bytes                 
     0000424B  _gra_set_pen                       
     00004250  _gra_line_abs                      
     0000426C  _gra_move_abs                      
     00004288  _gra_plot_abs                      
     000042A4  _gra_set_origin                    
     000042C0  _kl_time_please                    
     000042C4  _kl_time_set                       
     000042C8  _km_wait_char                      
     000042CD  _scr_set_mode                      
     000042E5  _vprintf                           vprintf
     00004305  _printf                            vprintf
     0000443D  __print_format                     printf_large
     00004EA4  _putchar                           cpct_strings
     00004EA4  _putchar_rr_s                      cpct_strings
     00004EAD  _putchar_rr_dbs                    cpct_strings
     00004EB2  ___sdcc_call_hl                    
     00004EB3  _strlen                            
     00004EC2  _cpct_mode_rom_status              cpct_firmware
ASxxxx Linker V03.00 + NoICE + sdld,  page 3.

Files Linked                              [ module(s) ]

obj/main.rel                              [ main ]
obj/fifolib.rel                           [  ]
obj/firmware.rel                          [  ]


Libraries Linked                          [ object file ]

/Users/richarde/Documents/nas/Development/git/cpctelera/cpctelera/tools/sdcc-3.6.8-r9946/bin/../share/sdcc/lib/z80/z80.lib
                                          [ vprintf.rel ]
/Users/richarde/Documents/nas/Development/git/cpctelera/cpctelera/tools/sdcc-3.6.8-r9946/bin/../share/sdcc/lib/z80/z80.lib
                                          [ printf_large.rel ]
/Users/richarde/Documents/nas/Development/git/cpctelera/cpctelera/cpctelera.lib
                                          [ cpct_putChar.rel ]
/Users/richarde/Documents/nas/Development/git/cpctelera/cpctelera/tools/sdcc-3.6.8-r9946/bin/../share/sdcc/lib/z80/z80.lib
                                          [ __sdcc_call_hl.rel ]
/Users/richarde/Documents/nas/Development/git/cpctelera/cpctelera/tools/sdcc-3.6.8-r9946/bin/../share/sdcc/lib/z80/z80.lib
                                          [ strlen.rel ]
/Users/richarde/Documents/nas/Development/git/cpctelera/cpctelera/cpctelera.lib
                                          [ cpc_mode_rom_status.rel ]

ASxxxx Linker V03.00 + NoICE + sdld,  page 4.

User Base Address Definitions

_CODE = 0x4000
_DATA = 0x0000

